; Function Attrs: mustprogress uwtable
define dso_local void @_ZNK4i18n12phonenumbers18PhoneNumberMatcher23GetNationalNumberGroupsERKNS0_11PhoneNumberEPSt6vectorINSt7__cxx1112basic_stringIcSt11char_traitsIcESaIcEEESaISB_EE(ptr nocapture noundef nonnull readonly align 8 dereferenceable(117) %0, ptr noundef nonnull align 8 dereferenceable(72) %1, ptr noundef %2) local_unnamed_addr #4 align 2 personality ptr @__gxx_personality_v0 {
  %4 = alloca %"class.std::__cxx11::basic_string", align 8
  %5 = alloca %"class.std::__cxx11::basic_string", align 8
  call void @_ZNSt7__cxx1112basic_stringIcSt11char_traitsIcESaIcEEC1Ev(ptr noundef nonnull align 8 dereferenceable(32) %4) #19
  %6 = getelementptr inbounds i8, ptr %0, i64 16
  %7 = load ptr, ptr %6, align 8
  invoke void @_ZNK4i18n12phonenumbers15PhoneNumberUtil6FormatERKNS0_11PhoneNumberENS1_17PhoneNumberFormatEPNSt7__cxx1112basic_stringIcSt11char_traitsIcESaIcEEE(ptr noundef nonnull align 8 dereferenceable(64) %7, ptr noundef nonnull align 8 dereferenceable(72) %1, i32 noundef 3, ptr noundef nonnull %4)
          to label %8 unwind label %13

8:                                                ; preds = %3
  %9 = call noundef i64 @_ZNKSt7__cxx1112basic_stringIcSt11char_traitsIcESaIcEE4findEcm(ptr noundef nonnull align 8 dereferenceable(32) %4, i8 noundef signext 59, i64 noundef 0) #19
  %10 = icmp eq i64 %9, -1
  br i1 %10, label %11, label %15

11:                                               ; preds = %8
  %12 = call noundef i64 @_ZNKSt7__cxx1112basic_stringIcSt11char_traitsIcESaIcEE6lengthEv(ptr noundef nonnull align 8 dereferenceable(32) %4) #19
  br label %15

13:                                               ; preds = %15, %3
  %14 = landingpad { ptr, i32 }
          cleanup
  br label %23

15:                                               ; preds = %11, %8
  %.08 = phi i64 [ %12, %11 ], [ %9, %8 ]
  %16 = call noundef i64 @_ZNKSt7__cxx1112basic_stringIcSt11char_traitsIcESaIcEE4findEcm(ptr noundef nonnull align 8 dereferenceable(32) %4, i8 noundef signext 45, i64 noundef 0) #19
  %17 = add i64 %16, 1
  %18 = sub i64 %.08, %17
  invoke void @_ZNKSt7__cxx1112basic_stringIcSt11char_traitsIcESaIcEE6substrEmm(ptr dead_on_unwind nonnull writable sret(%"class.std::__cxx11::basic_string") align 8 %5, ptr noundef nonnull align 8 dereferenceable(32) %4, i64 noundef %17, i64 noundef %18)
          to label %19 unwind label %13

19:                                               ; preds = %15
  invoke void @_ZN4i18n12phonenumbers16SplitStringUsingERKNSt7__cxx1112basic_stringIcSt11char_traitsIcESaIcEEEcPSt6vectorIS6_SaIS6_EE(ptr noundef nonnull align 8 dereferenceable(32) %5, i8 noundef signext 45, ptr noundef %2)
          to label %20 unwind label %21

20:                                               ; preds = %19
  call void @_ZNSt7__cxx1112basic_stringIcSt11char_traitsIcESaIcEED1Ev(ptr noundef nonnull align 8 dereferenceable(32) %5) #19
  call void @_ZNSt7__cxx1112basic_stringIcSt11char_traitsIcESaIcEED1Ev(ptr noundef nonnull align 8 dereferenceable(32) %4) #19
  ret void

21:                                               ; preds = %19
  %22 = landingpad { ptr, i32 }
          cleanup
  call void @_ZNSt7__cxx1112basic_stringIcSt11char_traitsIcESaIcEED1Ev(ptr noundef nonnull align 8 dereferenceable(32) %5) #19
  br label %23

23:                                               ; preds = %21, %13
  %.pn = phi { ptr, i32 } [ %22, %21 ], [ %14, %13 ]
  call void @_ZNSt7__cxx1112basic_stringIcSt11char_traitsIcESaIcEED1Ev(ptr noundef nonnull align 8 dereferenceable(32) %4) #19
  resume { ptr, i32 } %.pn
}